target datalayout = "e-m:e-p270:32:32-p271:32:32-p272:64:64-i64:64-i128:128-f80:128-n8:16:32:64-S128"
target triple = "x86_64-pc-linux-gnu"

@ff_tx_tab_32768_int32 = global [8193 x i32] zeroinitializer, align 16

; Function Attrs: alwaysinline nounwind willreturn memory(none) uwtable
define internal i64 @av_clip64_c(i64 noundef %0, i64 noundef %1, i64 noundef %2) #2 {
  %4 = alloca i64, align 8
  %5 = alloca i64, align 8
  %6 = alloca i64, align 8
  %7 = alloca i64, align 8
  store i64 %0, ptr %5, align 8, !tbaa !30
  store i64 %1, ptr %6, align 8, !tbaa !30
  store i64 %2, ptr %7, align 8, !tbaa !30
  %8 = load i64, ptr %5, align 8, !tbaa !30
  %9 = load i64, ptr %6, align 8, !tbaa !30
  %10 = icmp slt i64 %8, %9
  br i1 %10, label %11, label %13

11:                                               ; preds = %3
  %12 = load i64, ptr %6, align 8, !tbaa !30
  store i64 %12, ptr %4, align 8
  br label %21

13:                                               ; preds = %3
  %14 = load i64, ptr %5, align 8, !tbaa !30
  %15 = load i64, ptr %7, align 8, !tbaa !30
  %16 = icmp sgt i64 %14, %15
  br i1 %16, label %17, label %19

17:                                               ; preds = %13
  %18 = load i64, ptr %7, align 8, !tbaa !30
  store i64 %18, ptr %4, align 8
  br label %21

19:                                               ; preds = %13
  %20 = load i64, ptr %5, align 8, !tbaa !30
  store i64 %20, ptr %4, align 8
  br label %21

21:                                               ; preds = %19, %17, %11
  %22 = load i64, ptr %4, align 8
  ret i64 %22
}

; Function Attrs: cold nounwind optsize uwtable
define internal void @ff_tx_init_tab_32768_int32() #0 {
  %1 = alloca double, align 8
  %2 = alloca ptr, align 8
  %3 = alloca i32, align 4
  call void @llvm.lifetime.start.p0(i64 8, ptr %1) #10
  store double 0x3F2921FB54442D18, ptr %1, align 8, !tbaa !29
  call void @llvm.lifetime.start.p0(i64 8, ptr %2) #10
  store ptr @ff_tx_tab_32768_int32, ptr %2, align 8, !tbaa !19
  call void @llvm.lifetime.start.p0(i64 4, ptr %3) #10
  store i32 0, ptr %3, align 4, !tbaa !4
  br label %4

4:                                                ; preds = %21, %0
  %5 = load i32, ptr %3, align 4, !tbaa !4
  %6 = icmp slt i32 %5, 8192
  br i1 %6, label %8, label %7

7:                                                ; preds = %4
  call void @llvm.lifetime.end.p0(i64 4, ptr %3) #10
  br label %24

8:                                                ; preds = %4
  %9 = load i32, ptr %3, align 4, !tbaa !4
  %10 = sitofp i32 %9 to double
  %11 = load double, ptr %1, align 8, !tbaa !29
  %12 = fmul nsz double %10, %11
  %13 = call nsz double @llvm.cos.f64(double %12)
  %14 = fmul nsz double %13, 0x41E0000000000000
  %15 = fptrunc nsz double %14 to float
  %16 = call i64 @llvm.llrint.i64.f32(float %15)
  %17 = call i64 @av_clip64_c(i64 noundef %16, i64 noundef -2147483648, i64 noundef 2147483647) #11
  %18 = trunc i64 %17 to i32
  %19 = load ptr, ptr %2, align 8, !tbaa !19
  %20 = getelementptr inbounds nuw i32, ptr %19, i32 1
  store ptr %20, ptr %2, align 8, !tbaa !19
  store i32 %18, ptr %19, align 4, !tbaa !4
  br label %21

21:                                               ; preds = %8
  %22 = load i32, ptr %3, align 4, !tbaa !4
  %23 = add nsw i32 %22, 1
  store i32 %23, ptr %3, align 4, !tbaa !4
  br label %4, !llvm.loop !50

24:                                               ; preds = %7
  %25 = load ptr, ptr %2, align 8, !tbaa !19
  store i32 0, ptr %25, align 4, !tbaa !4
  call void @llvm.lifetime.end.p0(i64 8, ptr %2) #10
  call void @llvm.lifetime.end.p0(i64 8, ptr %1) #10
  ret void
}